target datalayout = "e-m:e-p270:32:32-p271:32:32-p272:64:64-i64:64-i128:128-f80:128-n8:16:32:64-S128"
target triple = "x86_64-pc-linux-gnu"

%struct.ProjectSetState = type { %struct.PlanState, ptr, ptr, i32, i8, ptr }
%struct.PlanState = type { i32, ptr, ptr, ptr, ptr, ptr, ptr, ptr, ptr, ptr, ptr, ptr, ptr, ptr, ptr, ptr, ptr, ptr, i8, ptr, ptr, ptr, ptr, ptr, i8, i8, i8, i8, i8, i8, i8, i8 }
%struct.ExprContext = type { i32, ptr, ptr, ptr, ptr, ptr, ptr, ptr, ptr, ptr, i64, i8, i64, i8, ptr, ptr, ptr, ptr }
%struct.TupleTableSlot = type { i32, i16, i16, ptr, ptr, ptr, ptr, ptr, %struct.ItemPointerData, i32 }
%struct.ItemPointerData = type { %struct.BlockIdData, i16 }
%struct.BlockIdData = type { i16, i16 }

@InterruptPending = external global i32, align 4

; Function Attrs: inlinehint nounwind uwtable
define internal ptr @ExecProcNode(ptr noundef %0) #2 {
  %2 = alloca ptr, align 8
  store ptr %0, ptr %2, align 8
  %3 = load ptr, ptr %2, align 8
  %4 = getelementptr inbounds nuw %struct.PlanState, ptr %3, i32 0, i32 13
  %5 = load ptr, ptr %4, align 8
  %6 = icmp ne ptr %5, null
  br i1 %6, label %7, label %9

7:                                                ; preds = %1
  %8 = load ptr, ptr %2, align 8
  call void @ExecReScan(ptr noundef %8)
  br label %9

9:                                                ; preds = %7, %1
  %10 = load ptr, ptr %2, align 8
  %11 = getelementptr inbounds nuw %struct.PlanState, ptr %10, i32 0, i32 3
  %12 = load ptr, ptr %11, align 8
  %13 = load ptr, ptr %2, align 8
  %14 = call ptr %12(ptr noundef %13)
  ret ptr %14
}

; Function Attrs: nounwind uwtable
define internal ptr @ExecProjectSet(ptr noundef %0) #0 {
  %2 = alloca ptr, align 8
  %3 = alloca ptr, align 8
  %4 = alloca ptr, align 8
  %5 = alloca ptr, align 8
  %6 = alloca ptr, align 8
  %7 = alloca ptr, align 8
  %8 = alloca ptr, align 8
  %9 = alloca i32, align 4
  store ptr %0, ptr %3, align 8
  call void @llvm.lifetime.start.p0(i64 8, ptr %4) #6
  %10 = load ptr, ptr %3, align 8
  store ptr %10, ptr %4, align 8
  call void @llvm.lifetime.start.p0(i64 8, ptr %5) #6
  call void @llvm.lifetime.start.p0(i64 8, ptr %6) #6
  call void @llvm.lifetime.start.p0(i64 8, ptr %7) #6
  call void @llvm.lifetime.start.p0(i64 8, ptr %8) #6
  br label %11

11:                                               ; preds = %1
  %12 = load volatile i32, ptr @InterruptPending, align 4
  %13 = icmp ne i32 %12, 0
  %14 = zext i1 %13 to i32
  %15 = sext i32 %14 to i64
  %16 = call i64 @llvm.expect.i64(i64 %15, i64 0)
  %17 = icmp ne i64 %16, 0
  br i1 %17, label %18, label %19

18:                                               ; preds = %11
  call void @ProcessInterrupts()
  br label %19

19:                                               ; preds = %18, %11
  br label %20

20:                                               ; preds = %19
  br label %21

21:                                               ; preds = %20
  %22 = load ptr, ptr %4, align 8
  %23 = getelementptr inbounds nuw %struct.ProjectSetState, ptr %22, i32 0, i32 0
  %24 = getelementptr inbounds nuw %struct.PlanState, ptr %23, i32 0, i32 16
  %25 = load ptr, ptr %24, align 8
  store ptr %25, ptr %8, align 8
  %26 = load ptr, ptr %8, align 8
  %27 = getelementptr inbounds nuw %struct.ExprContext, ptr %26, i32 0, i32 5
  %28 = load ptr, ptr %27, align 8
  call void @MemoryContextReset(ptr noundef %28)
  %29 = load ptr, ptr %4, align 8
  %30 = getelementptr inbounds nuw %struct.ProjectSetState, ptr %29, i32 0, i32 4
  %31 = load i8, ptr %30, align 4, !range !4, !noundef !5
  %32 = trunc i8 %31 to i1
  br i1 %32, label %33, label %41

33:                                               ; preds = %21
  %34 = load ptr, ptr %4, align 8
  %35 = call ptr @ExecProjectSRF(ptr noundef %34, i1 noundef zeroext true)
  store ptr %35, ptr %6, align 8
  %36 = load ptr, ptr %6, align 8
  %37 = icmp ne ptr %36, null
  br i1 %37, label %38, label %40

38:                                               ; preds = %33
  %39 = load ptr, ptr %6, align 8
  store ptr %39, ptr %2, align 8
  store i32 1, ptr %9, align 4
  br label %75

40:                                               ; preds = %33
  br label %41

41:                                               ; preds = %40, %21
  br label %42

42:                                               ; preds = %71, %41
  %43 = load ptr, ptr %4, align 8
  %44 = getelementptr inbounds nuw %struct.ProjectSetState, ptr %43, i32 0, i32 5
  %45 = load ptr, ptr %44, align 8
  call void @MemoryContextReset(ptr noundef %45)
  %46 = load ptr, ptr %4, align 8
  %47 = getelementptr inbounds nuw %struct.PlanState, ptr %46, i32 0, i32 9
  %48 = load ptr, ptr %47, align 8
  store ptr %48, ptr %7, align 8
  %49 = load ptr, ptr %7, align 8
  %50 = call ptr @ExecProcNode(ptr noundef %49)
  store ptr %50, ptr %5, align 8
  %51 = load ptr, ptr %5, align 8
  %52 = icmp eq ptr %51, null
  br i1 %52, label %60, label %53

53:                                               ; preds = %42
  %54 = load ptr, ptr %5, align 8
  %55 = getelementptr inbounds nuw %struct.TupleTableSlot, ptr %54, i32 0, i32 1
  %56 = load i16, ptr %55, align 4
  %57 = zext i16 %56 to i32
  %58 = and i32 %57, 2
  %59 = icmp ne i32 %58, 0
  br i1 %59, label %60, label %61

60:                                               ; preds = %53, %42
  store ptr null, ptr %2, align 8
  store i32 1, ptr %9, align 4
  br label %75

61:                                               ; preds = %53
  %62 = load ptr, ptr %5, align 8
  %63 = load ptr, ptr %8, align 8
  %64 = getelementptr inbounds nuw %struct.ExprContext, ptr %63, i32 0, i32 3
  store ptr %62, ptr %64, align 8
  %65 = load ptr, ptr %4, align 8
  %66 = call ptr @ExecProjectSRF(ptr noundef %65, i1 noundef zeroext false)
  store ptr %66, ptr %6, align 8
  %67 = load ptr, ptr %6, align 8
  %68 = icmp ne ptr %67, null
  br i1 %68, label %69, label %71

69:                                               ; preds = %61
  %70 = load ptr, ptr %6, align 8
  store ptr %70, ptr %2, align 8
  store i32 1, ptr %9, align 4
  br label %75

71:                                               ; preds = %61
  %72 = load ptr, ptr %8, align 8
  %73 = getelementptr inbounds nuw %struct.ExprContext, ptr %72, i32 0, i32 5
  %74 = load ptr, ptr %73, align 8
  call void @MemoryContextReset(ptr noundef %74)
  br label %42

75:                                               ; preds = %69, %60, %38
  call void @llvm.lifetime.end.p0(i64 8, ptr %8) #6
  call void @llvm.lifetime.end.p0(i64 8, ptr %7) #6
  call void @llvm.lifetime.end.p0(i64 8, ptr %6) #6
  call void @llvm.lifetime.end.p0(i64 8, ptr %5) #6
  call void @llvm.lifetime.end.p0(i64 8, ptr %4) #6
  %76 = load ptr, ptr %2, align 8
  ret ptr %76
}