; Function Attrs: nounwind uwtable
define internal noundef ptr @ExecProjectSet(ptr noundef captures(none) %0) #0 {
  %2 = load volatile i32, ptr @InterruptPending, align 4
  %.not = icmp eq i32 %2, 0
  br i1 %.not, label %4, label %3, !prof !6

3:                                                ; preds = %1
  tail call void @ProcessInterrupts() #2
  br label %4

4:                                                ; preds = %3, %1
  %5 = getelementptr inbounds nuw i8, ptr %0, i64 128
  %6 = load ptr, ptr %5, align 8
  %7 = getelementptr inbounds nuw i8, ptr %6, i64 40
  %8 = load ptr, ptr %7, align 8
  tail call void @MemoryContextReset(ptr noundef %8) #2
  %9 = getelementptr inbounds nuw i8, ptr %0, i64 220
  %10 = load i8, ptr %9, align 4, !range !4, !noundef !5
  %11 = trunc nuw i8 %10 to i1
  br i1 %11, label %12, label %14

12:                                               ; preds = %4
  %13 = tail call fastcc ptr @ExecProjectSRF(ptr noundef nonnull %0, i1 noundef zeroext true)
  %.not22 = icmp eq ptr %13, null
  br i1 %.not22, label %14, label %.loopexit

14:                                               ; preds = %12, %4
  %15 = getelementptr inbounds nuw i8, ptr %6, i64 24
  %16 = getelementptr inbounds nuw i8, ptr %0, i64 224
  %17 = getelementptr inbounds nuw i8, ptr %0, i64 72
  br label %18

18:                                               ; preds = %34, %14
  %19 = load ptr, ptr %16, align 8
  tail call void @MemoryContextReset(ptr noundef %19) #2
  %20 = load ptr, ptr %17, align 8
  %21 = getelementptr inbounds nuw i8, ptr %20, i64 104
  %22 = load ptr, ptr %21, align 8
  %.not.i = icmp eq ptr %22, null
  br i1 %.not.i, label %ExecProcNode.exit, label %23

23:                                               ; preds = %18
  tail call void @ExecReScan(ptr noundef nonnull %20) #2
  br label %ExecProcNode.exit

ExecProcNode.exit:                                ; preds = %18, %23
  %24 = getelementptr inbounds nuw i8, ptr %20, i64 24
  %25 = load ptr, ptr %24, align 8
  %26 = tail call ptr %25(ptr noundef nonnull %20) #2
  %27 = icmp eq ptr %26, null
  br i1 %27, label %.loopexit, label %28

28:                                               ; preds = %ExecProcNode.exit
  %29 = getelementptr inbounds nuw i8, ptr %26, i64 4
  %30 = load i16, ptr %29, align 4
  %31 = and i16 %30, 2
  %.not23 = icmp eq i16 %31, 0
  br i1 %.not23, label %32, label %.loopexit

32:                                               ; preds = %28
  store ptr %26, ptr %15, align 8
  %33 = tail call fastcc ptr @ExecProjectSRF(ptr noundef nonnull %0, i1 noundef zeroext false)
  %.not24 = icmp eq ptr %33, null
  br i1 %.not24, label %34, label %.loopexit

34:                                               ; preds = %32
  %35 = load ptr, ptr %7, align 8
  tail call void @MemoryContextReset(ptr noundef %35) #2
  br label %18

.loopexit:                                        ; preds = %32, %ExecProcNode.exit, %28, %12
  %.0 = phi ptr [ %13, %12 ], [ %33, %32 ], [ null, %ExecProcNode.exit ], [ null, %28 ]
  ret ptr %.0
}